; ModuleID = '24/2212.c'
source_filename = "24/2212.c"
target datalayout = "e-m:e-p270:32:32-p271:32:32-p272:64:64-i64:64-f80:128-n8:16:32:64-S128"
target triple = "x86_64-pc-linux-gnu"

@.str = private unnamed_addr constant [7 x i8] c"%s\0A%s\0A\00", align 1

; Function Attrs: noinline nounwind uwtable
define dso_local i32 @main() #0 {
  %1 = alloca i32, align 4
  %2 = alloca [4000 x i8], align 16
  %3 = alloca [200 x [20 x i8]], align 16
  %4 = alloca i32, align 4
  %5 = alloca i32, align 4
  %6 = alloca i32, align 4
  %7 = alloca i32, align 4
  %8 = alloca i32, align 4
  %9 = alloca i32, align 4
  store i32 0, i32* %1, align 4
  %10 = bitcast [200 x [20 x i8]]* %3 to i8*
  call void @llvm.memset.p0i8.i64(i8* align 16 %10, i8 0, i64 4000, i1 false)
  store i32 0, i32* %5, align 4
  store i32 0, i32* %6, align 4
  store i32 0, i32* %8, align 4
  store i32 0, i32* %9, align 4
  %11 = getelementptr inbounds [4000 x i8], [4000 x i8]* %2, i64 0, i64 0
  %12 = call i32 (i8*, ...) bitcast (i32 (...)* @gets to i32 (i8*, ...)*)(i8* %11)
  %13 = getelementptr inbounds [4000 x i8], [4000 x i8]* %2, i64 0, i64 0
  %14 = call i64 @strlen(i8* %13) #4
  %15 = trunc i64 %14 to i32
  store i32 %15, i32* %7, align 4
  %16 = getelementptr inbounds [4000 x i8], [4000 x i8]* %2, i64 0, i64 0
  %17 = load i8, i8* %16, align 16
  %18 = load i32, i32* %5, align 4
  %19 = sext i32 %18 to i64
  %20 = getelementptr inbounds [200 x [20 x i8]], [200 x [20 x i8]]* %3, i64 0, i64 %19
  %21 = load i32, i32* %6, align 4
  %22 = add nsw i32 %21, 1
  store i32 %22, i32* %6, align 4
  %23 = sext i32 %21 to i64
  %24 = getelementptr inbounds [20 x i8], [20 x i8]* %20, i64 0, i64 %23
  store i8 %17, i8* %24, align 1
  store i32 1, i32* %4, align 4
  br label %25

25:                                               ; preds = %52, %0
  %26 = load i32, i32* %4, align 4
  %27 = load i32, i32* %7, align 4
  %28 = icmp slt i32 %26, %27
  br i1 %28, label %29, label %55

29:                                               ; preds = %25
  %30 = load i32, i32* %4, align 4
  %31 = sext i32 %30 to i64
  %32 = getelementptr inbounds [4000 x i8], [4000 x i8]* %2, i64 0, i64 %31
  %33 = load i8, i8* %32, align 1
  %34 = sext i8 %33 to i32
  %35 = icmp eq i32 %34, 32
  br i1 %35, label %36, label %39

36:                                               ; preds = %29
  %37 = load i32, i32* %5, align 4
  %38 = add nsw i32 %37, 1
  store i32 %38, i32* %5, align 4
  store i32 0, i32* %6, align 4
  br label %51

39:                                               ; preds = %29
  %40 = load i32, i32* %4, align 4
  %41 = sext i32 %40 to i64
  %42 = getelementptr inbounds [4000 x i8], [4000 x i8]* %2, i64 0, i64 %41
  %43 = load i8, i8* %42, align 1
  %44 = load i32, i32* %5, align 4
  %45 = sext i32 %44 to i64
  %46 = getelementptr inbounds [200 x [20 x i8]], [200 x [20 x i8]]* %3, i64 0, i64 %45
  %47 = load i32, i32* %6, align 4
  %48 = add nsw i32 %47, 1
  store i32 %48, i32* %6, align 4
  %49 = sext i32 %47 to i64
  %50 = getelementptr inbounds [20 x i8], [20 x i8]* %46, i64 0, i64 %49
  store i8 %43, i8* %50, align 1
  br label %51

51:                                               ; preds = %39, %36
  br label %52

52:                                               ; preds = %51
  %53 = load i32, i32* %4, align 4
  %54 = add nsw i32 %53, 1
  store i32 %54, i32* %4, align 4
  br label %25

55:                                               ; preds = %25
  store i32 0, i32* %4, align 4
  br label %56

56:                                               ; preds = %89, %55
  %57 = load i32, i32* %4, align 4
  %58 = load i32, i32* %5, align 4
  %59 = icmp sle i32 %57, %58
  br i1 %59, label %60, label %92

60:                                               ; preds = %56
  %61 = load i32, i32* %8, align 4
  %62 = sext i32 %61 to i64
  %63 = getelementptr inbounds [200 x [20 x i8]], [200 x [20 x i8]]* %3, i64 0, i64 %62
  %64 = getelementptr inbounds [20 x i8], [20 x i8]* %63, i64 0, i64 0
  %65 = call i64 @strlen(i8* %64) #4
  %66 = load i32, i32* %4, align 4
  %67 = sext i32 %66 to i64
  %68 = getelementptr inbounds [200 x [20 x i8]], [200 x [20 x i8]]* %3, i64 0, i64 %67
  %69 = getelementptr inbounds [20 x i8], [20 x i8]* %68, i64 0, i64 0
  %70 = call i64 @strlen(i8* %69) #4
  %71 = icmp ult i64 %65, %70
  br i1 %71, label %72, label %74

72:                                               ; preds = %60
  %73 = load i32, i32* %4, align 4
  store i32 %73, i32* %8, align 4
  br label %74

74:                                               ; preds = %72, %60
  %75 = load i32, i32* %9, align 4
  %76 = sext i32 %75 to i64
  %77 = getelementptr inbounds [200 x [20 x i8]], [200 x [20 x i8]]* %3, i64 0, i64 %76
  %78 = getelementptr inbounds [20 x i8], [20 x i8]* %77, i64 0, i64 0
  %79 = call i64 @strlen(i8* %78) #4
  %80 = load i32, i32* %4, align 4
  %81 = sext i32 %80 to i64
  %82 = getelementptr inbounds [200 x [20 x i8]], [200 x [20 x i8]]* %3, i64 0, i64 %81
  %83 = getelementptr inbounds [20 x i8], [20 x i8]* %82, i64 0, i64 0
  %84 = call i64 @strlen(i8* %83) #4
  %85 = icmp ugt i64 %79, %84
  br i1 %85, label %86, label %88

86:                                               ; preds = %74
  %87 = load i32, i32* %4, align 4
  store i32 %87, i32* %9, align 4
  br label %88

88:                                               ; preds = %86, %74
  br label %89

89:                                               ; preds = %88
  %90 = load i32, i32* %4, align 4
  %91 = add nsw i32 %90, 1
  store i32 %91, i32* %4, align 4
  br label %56

92:                                               ; preds = %56
  %93 = load i32, i32* %8, align 4
  %94 = sext i32 %93 to i64
  %95 = getelementptr inbounds [200 x [20 x i8]], [200 x [20 x i8]]* %3, i64 0, i64 %94
  %96 = getelementptr inbounds [20 x i8], [20 x i8]* %95, i64 0, i64 0
  %97 = load i32, i32* %9, align 4
  %98 = sext i32 %97 to i64
  %99 = getelementptr inbounds [200 x [20 x i8]], [200 x [20 x i8]]* %3, i64 0, i64 %98
  %100 = getelementptr inbounds [20 x i8], [20 x i8]* %99, i64 0, i64 0
  %101 = call i32 (i8*, ...) @printf(i8* getelementptr inbounds ([7 x i8], [7 x i8]* @.str, i64 0, i64 0), i8* %96, i8* %100)
  ret i32 0
}

; Function Attrs: argmemonly nounwind willreturn
declare void @llvm.memset.p0i8.i64(i8* nocapture writeonly, i8, i64, i1 immarg) #1

declare dso_local i32 @gets(...) #2

; Function Attrs: nounwind readonly
declare dso_local i64 @strlen(i8*) #3

declare dso_local i32 @printf(i8*, ...) #2


!llvm.module.flags = !{!0}
!llvm.ident = !{!1}

!0 = !{i32 1, !"wchar_size", i32 4}
!1 = !{!"clang version 10.0.0-4ubuntu1 "}
